; Function Attrs: mustprogress nofree norecurse nosync nounwind willreturn memory(read, inaccessiblemem: none) uwtable
define noundef i32 @_ZNK3gmx15CorrelationGrid12getNumBlocksEv(ptr nocapture noundef nonnull readonly align 8 dereferenceable(40) %0) local_unnamed_addr #8 align 2 {
  %2 = getelementptr inbounds i8, ptr %0, i64 16
  %3 = load ptr, ptr %2, align 8
  %4 = getelementptr inbounds i8, ptr %3, i64 8
  %5 = load ptr, ptr %4, align 8
  %6 = getelementptr inbounds i8, ptr %5, i64 -64
  %7 = load double, ptr %6, align 8
  %8 = load ptr, ptr %3, align 8
  %9 = getelementptr inbounds i8, ptr %8, i64 32
  %10 = load double, ptr %9, align 8
  %11 = fcmp olt double %7, 0x7FEFFFFFFFFFFFFF
  %12 = fdiv double %7, %10
  %13 = fptosi double %12 to i32
  %.0 = select i1 %11, i32 %13, i32 -1
  ret i32 %.0
}